; Function Attrs: mustprogress uwtable
define internal void @_ZNK2cv4impl12_GLOBAL__N_120CvtColorLoop_InvokerINS_9XYZ2RGB_iItEEEclERKNS_5RangeE(ptr noundef nonnull readonly align 8 captures(none) dereferenceable(56) %0, ptr noundef nonnull readonly align 4 captures(none) dereferenceable(8) %1) unnamed_addr #5 align 2 personality ptr @__gxx_personality_v0 {
  %3 = alloca %"class.cv::utils::trace::details::Region", align 8
  call void @llvm.lifetime.start.p0(i64 16, ptr nonnull %3) #22
  call void @_ZN2cv5utils5trace7details6RegionC1ERKNS3_21LocationStaticStorageE(ptr noundef nonnull align 8 dereferenceable(12) %3, ptr noundef nonnull align 8 dereferenceable(32) @_ZZNK2cv4impl12_GLOBAL__N_120CvtColorLoop_InvokerINS_9XYZ2RGB_iItEEEclERKNS_5RangeEE25__cv_trace_location_fn146)
  %4 = load i32, ptr %1, align 4, !tbaa !9
  %5 = getelementptr inbounds nuw i8, ptr %0, i64 16
  %6 = getelementptr inbounds nuw i8, ptr %0, i64 32
  %7 = getelementptr inbounds nuw i8, ptr %1, i64 4
  %8 = load i32, ptr %7, align 4, !tbaa !11
  %9 = icmp slt i32 %4, %8
  br i1 %9, label %.lr.ph, label %._crit_edge

.lr.ph:                                           ; preds = %2
  %10 = getelementptr inbounds nuw i8, ptr %0, i64 24
  %11 = load ptr, ptr %10, align 8, !tbaa !73
  %12 = load i64, ptr %6, align 8, !tbaa !74
  %13 = sext i32 %4 to i64
  %14 = mul i64 %12, %13
  %15 = getelementptr inbounds nuw i8, ptr %11, i64 %14
  %16 = getelementptr inbounds nuw i8, ptr %0, i64 8
  %17 = load ptr, ptr %16, align 8, !tbaa !69
  %18 = load i64, ptr %5, align 8, !tbaa !72
  %19 = mul i64 %18, %13
  %20 = getelementptr inbounds nuw i8, ptr %17, i64 %19
  %21 = getelementptr inbounds nuw i8, ptr %0, i64 48
  %22 = getelementptr inbounds nuw i8, ptr %0, i64 40
  br label %29

._crit_edge:                                      ; preds = %32, %2
  %23 = getelementptr inbounds nuw i8, ptr %3, i64 8
  %24 = load i32, ptr %23, align 8, !tbaa !52
  %.not.i = icmp eq i32 %24, 0
  br i1 %.not.i, label %_ZN2cv5utils5trace7details6RegionD2Ev.exit, label %25

25:                                               ; preds = %._crit_edge
  invoke void @_ZN2cv5utils5trace7details6Region7destroyEv(ptr noundef nonnull align 8 dereferenceable(12) %3)
          to label %_ZN2cv5utils5trace7details6RegionD2Ev.exit unwind label %26

26:                                               ; preds = %25
  %27 = landingpad { ptr, i32 }
          catch ptr null
  %28 = extractvalue { ptr, i32 } %27, 0
  call void @__clang_call_terminate(ptr %28) #23
  unreachable

_ZN2cv5utils5trace7details6RegionD2Ev.exit:       ; preds = %._crit_edge, %25
  call void @llvm.lifetime.end.p0(i64 16, ptr nonnull %3) #22
  ret void

29:                                               ; preds = %.lr.ph, %32
  %.016 = phi ptr [ %20, %.lr.ph ], [ %35, %32 ]
  %.01215 = phi ptr [ %15, %.lr.ph ], [ %37, %32 ]
  %.01314 = phi i32 [ %4, %.lr.ph ], [ %33, %32 ]
  %30 = load ptr, ptr %21, align 8, !tbaa !501
  %31 = load i32, ptr %22, align 8, !tbaa !75
  invoke void @_ZNK2cv9XYZ2RGB_iItEclEPKtPti(ptr noundef nonnull align 4 dereferenceable(44) %30, ptr noundef %.016, ptr noundef %.01215, i32 noundef %31)
          to label %32 unwind label %40

32:                                               ; preds = %29
  %33 = add nsw i32 %.01314, 1
  %34 = load i64, ptr %5, align 8, !tbaa !72
  %35 = getelementptr inbounds nuw i8, ptr %.016, i64 %34
  %36 = load i64, ptr %6, align 8, !tbaa !74
  %37 = getelementptr inbounds nuw i8, ptr %.01215, i64 %36
  %38 = load i32, ptr %7, align 4, !tbaa !11
  %39 = icmp slt i32 %33, %38
  br i1 %39, label %29, label %._crit_edge, !llvm.loop !502

40:                                               ; preds = %29
  %41 = landingpad { ptr, i32 }
          cleanup
  call void @_ZN2cv5utils5trace7details6RegionD2Ev(ptr noundef nonnull align 8 dereferenceable(12) %3) #22
  call void @llvm.lifetime.end.p0(i64 16, ptr nonnull %3) #22
  resume { ptr, i32 } %41
}